target datalayout = "e-m:e-p270:32:32-p271:32:32-p272:64:64-i64:64-i128:128-f80:128-n8:16:32:64-S128"
target triple = "x86_64-pc-linux-gnu"

%"class.cv::detail::tracking::online_boosting::WeakClassifierHaarFeature" = type { ptr, float, float, ptr }
%"class.cv::detail::tracking::online_boosting::EstimatedGaussDistribution" = type { ptr, float, float, float, float, float, float }

; Function Attrs: mustprogress nounwind uwtable
define hidden void @_ZN2cv6detail8tracking15online_boosting26EstimatedGaussDistribution9setValuesEff(ptr noundef nonnull align 8 dereferenceable(32) %0, float noundef %1, float noundef %2) #5 align 2 {
  %4 = alloca ptr, align 8
  %5 = alloca float, align 4
  %6 = alloca float, align 4
  store ptr %0, ptr %4, align 8, !tbaa !157
  store float %1, ptr %5, align 4, !tbaa !38
  store float %2, ptr %6, align 4, !tbaa !38
  %7 = load ptr, ptr %4, align 8
  %8 = load float, ptr %5, align 4, !tbaa !38
  %9 = getelementptr inbounds nuw %"class.cv::detail::tracking::online_boosting::EstimatedGaussDistribution", ptr %7, i32 0, i32 1
  store float %8, ptr %9, align 8, !tbaa !159
  %10 = load float, ptr %6, align 4, !tbaa !38
  %11 = getelementptr inbounds nuw %"class.cv::detail::tracking::online_boosting::EstimatedGaussDistribution", ptr %7, i32 0, i32 2
  store float %10, ptr %11, align 4, !tbaa !161
  ret void
}

; Function Attrs: mustprogress nounwind uwtable
define hidden void @_ZN2cv6detail8tracking15online_boosting25WeakClassifierHaarFeature22getInitialDistributionEPNS2_26EstimatedGaussDistributionE(ptr noundef nonnull align 8 dereferenceable(24) %0, ptr noundef %1) #5 align 2 {
  %3 = alloca ptr, align 8
  %4 = alloca ptr, align 8
  store ptr %0, ptr %3, align 8, !tbaa !120
  store ptr %1, ptr %4, align 8, !tbaa !157
  %5 = load ptr, ptr %3, align 8
  %6 = load ptr, ptr %4, align 8, !tbaa !157
  %7 = getelementptr inbounds nuw %"class.cv::detail::tracking::online_boosting::WeakClassifierHaarFeature", ptr %5, i32 0, i32 2
  %8 = load float, ptr %7, align 4, !tbaa !167
  %9 = getelementptr inbounds nuw %"class.cv::detail::tracking::online_boosting::WeakClassifierHaarFeature", ptr %5, i32 0, i32 1
  %10 = load float, ptr %9, align 8, !tbaa !166
  call void @_ZN2cv6detail8tracking15online_boosting26EstimatedGaussDistribution9setValuesEff(ptr noundef nonnull align 8 dereferenceable(32) %6, float noundef %8, float noundef %10)
  ret void
}