; Function Attrs: mustprogress nofree norecurse nosync nounwind willreturn memory(argmem: readwrite) uwtable
define hidden void @_ZN2cv6detail8tracking15online_boosting25WeakClassifierHaarFeature22getInitialDistributionEPNS2_26EstimatedGaussDistributionE(ptr noundef nonnull readonly align 8 captures(none) dereferenceable(24) %0, ptr noundef writeonly captures(none) initializes((8, 16)) %1) local_unnamed_addr #19 align 2 {
  %3 = getelementptr inbounds nuw i8, ptr %0, i64 12
  %4 = load float, ptr %3, align 4, !tbaa !140
  %5 = getelementptr inbounds nuw i8, ptr %0, i64 8
  %6 = load float, ptr %5, align 8, !tbaa !139
  %7 = getelementptr inbounds nuw i8, ptr %1, i64 8
  store float %4, ptr %7, align 8, !tbaa !127
  %8 = getelementptr inbounds nuw i8, ptr %1, i64 12
  store float %6, ptr %8, align 4, !tbaa !130
  ret void
}